; Function Attrs: nounwind uwtable
define dso_local noundef i64 @array_to_text(ptr noundef readonly captures(none) %0) local_unnamed_addr #0 {
  %2 = getelementptr inbounds nuw i8, ptr %0, i64 32
  %3 = load i64, ptr %2, align 8
  %4 = inttoptr i64 %3 to ptr
  %5 = tail call ptr @pg_detoast_datum(ptr noundef %4) #19
  %6 = getelementptr inbounds nuw i8, ptr %0, i64 48
  %7 = load i64, ptr %6, align 8
  %8 = inttoptr i64 %7 to ptr
  %9 = tail call ptr @pg_detoast_datum_packed(ptr noundef %8) #19
  %10 = tail call ptr @pg_detoast_datum_packed(ptr noundef %9) #19
  %11 = load i8, ptr %10, align 1
  %12 = zext i8 %11 to i32
  %13 = icmp eq i8 %11, 1
  br i1 %13, label %14, label %23

14:                                               ; preds = %1
  %15 = getelementptr inbounds nuw i8, ptr %10, i64 1
  %16 = load i8, ptr %15, align 1
  %17 = icmp eq i8 %16, 1
  %18 = and i8 %16, -2
  %19 = icmp eq i8 %18, 2
  %or.cond.i = or i1 %17, %19
  %20 = icmp eq i8 %16, 18
  %21 = select i1 %20, i32 16, i32 0
  %22 = select i1 %or.cond.i, i32 8, i32 %21
  br label %32

23:                                               ; preds = %1
  %24 = and i32 %12, 1
  %.not.i = icmp eq i32 %24, 0
  br i1 %.not.i, label %28, label %25

25:                                               ; preds = %23
  %26 = lshr i32 %12, 1
  %27 = add nsw i32 %26, -1
  br label %32

28:                                               ; preds = %23
  %29 = load i32, ptr %10, align 4
  %30 = lshr i32 %29, 2
  %31 = add nsw i32 %30, -4
  br label %32

32:                                               ; preds = %28, %25, %14
  %33 = phi i32 [ %22, %14 ], [ %27, %25 ], [ %31, %28 ]
  %34 = add nsw i32 %33, 1
  %35 = sext i32 %34 to i64
  %36 = tail call ptr @palloc(i64 noundef %35) #19
  %37 = load i8, ptr %10, align 1
  %38 = and i8 %37, 1
  %.not21.i = icmp eq i8 %38, 0
  %.v.i = select i1 %.not21.i, i64 4, i64 1
  %39 = getelementptr inbounds nuw i8, ptr %10, i64 %.v.i
  %40 = sext i32 %33 to i64
  tail call void @llvm.memcpy.p0.p0.i64(ptr align 1 %36, ptr nonnull align 1 %39, i64 %40, i1 false)
  %41 = getelementptr inbounds i8, ptr %36, i64 %40
  store i8 0, ptr %41, align 1
  %.not22.i = icmp eq ptr %10, %9
  br i1 %.not22.i, label %text_to_cstring.exit, label %42

42:                                               ; preds = %32
  tail call void @pfree(ptr noundef nonnull %10) #19
  br label %text_to_cstring.exit

text_to_cstring.exit:                             ; preds = %32, %42
  %43 = tail call fastcc ptr @array_to_text_internal(ptr noundef nonnull %0, ptr noundef %5, ptr noundef nonnull %36, ptr noundef null)
  %44 = ptrtoint ptr %43 to i64
  ret i64 %44
}